target datalayout = "e-m:e-p270:32:32-p271:32:32-p272:64:64-i64:64-i128:128-f80:128-n8:16:32:64-S128"
target triple = "x86_64-pc-linux-gnu"

@_ZN14dtNavMeshQueryD1Ev = unnamed_addr alias void (ptr), ptr @_ZN14dtNavMeshQueryD2Ev

; Function Attrs: mustprogress uwtable
define void @_Z18dtFreeNavMeshQueryP14dtNavMeshQuery(ptr noundef %0) #1 {
  %2 = alloca ptr, align 8
  store ptr %0, ptr %2, align 8
  %3 = load ptr, ptr %2, align 8
  %4 = icmp ne ptr %3, null
  br i1 %4, label %6, label %5

5:                                                ; preds = %1
  br label %9

6:                                                ; preds = %1
  %7 = load ptr, ptr %2, align 8
  call void @_ZN14dtNavMeshQueryD1Ev(ptr noundef nonnull align 8 dereferenceable(104) %7) #9
  %8 = load ptr, ptr %2, align 8
  call void @_Z6dtFreePv(ptr noundef %8)
  br label %9

9:                                                ; preds = %6, %5
  ret void
}