; Function Attrs: mustprogress uwtable
define void @_Z18dtFreeNavMeshQueryP14dtNavMeshQuery(ptr noundef %0) local_unnamed_addr #1 {
  %.not = icmp eq ptr %0, null
  br i1 %.not, label %3, label %2

2:                                                ; preds = %1
  tail call void @_ZN14dtNavMeshQueryD1Ev(ptr noundef nonnull align 8 dereferenceable(104) %0) #20
  tail call void @_Z6dtFreePv(ptr noundef nonnull %0)
  br label %3

3:                                                ; preds = %1, %2
  ret void
}